; Function Attrs: nounwind uwtable
define internal void @sbr_hf_apply_noise_0(ptr noundef captures(none) %0, ptr noundef readonly captures(none) %1, ptr noundef readonly captures(none) %2, i32 noundef %3, i32 %4, i32 noundef %5) #3 {
  %7 = icmp sgt i32 %5, 0
  br i1 %7, label %.lr.ph.preheader, label %sbr_hf_apply_noise.exit

.lr.ph.preheader:                                 ; preds = %6
  %wide.trip.count = zext nneg i32 %5 to i64
  br label %.lr.ph

.lr.ph:                                           ; preds = %.lr.ph.preheader, %.thread
  %indvars.iv = phi i64 [ 0, %.lr.ph.preheader ], [ %indvars.iv.next, %.thread ]
  %.062.i16 = phi i32 [ %3, %.lr.ph.preheader ], [ %13, %.thread ]
  %8 = getelementptr inbounds nuw [2 x i32], ptr %0, i64 %indvars.iv
  %9 = load i32, ptr %8, align 4, !tbaa !19
  %10 = getelementptr inbounds nuw i8, ptr %8, i64 4
  %11 = load i32, ptr %10, align 4, !tbaa !19
  %12 = add nsw i32 %.062.i16, 1
  %13 = and i32 %12, 511
  %14 = getelementptr inbounds nuw %struct.SoftFloat, ptr %1, i64 %indvars.iv
  %15 = load i32, ptr %14, align 4, !tbaa !38
  %.not.i = icmp eq i32 %15, 0
  br i1 %.not.i, label %31, label %16

16:                                               ; preds = %.lr.ph
  %17 = getelementptr inbounds nuw i8, ptr %14, i64 4
  %18 = load i32, ptr %17, align 4, !tbaa !36
  %19 = sub nsw i32 22, %18
  %20 = icmp slt i32 %18, 22
  br i1 %20, label %21, label %sbr_hf_apply_noise.exit.sink.split

21:                                               ; preds = %16
  %22 = icmp sgt i32 %18, -8
  br i1 %22, label %23, label %.thread

23:                                               ; preds = %21
  %24 = sub nsw i32 21, %18
  %25 = shl nuw nsw i32 1, %24
  %26 = add nsw i32 %25, %15
  %27 = ashr i32 %26, %19
  %28 = add i32 %27, %9
  %29 = lshr i32 %25, %19
  %30 = add i32 %29, %11
  br label %.thread

31:                                               ; preds = %.lr.ph
  %32 = getelementptr inbounds nuw %struct.SoftFloat, ptr %2, i64 %indvars.iv
  %33 = getelementptr inbounds nuw i8, ptr %32, i64 4
  %34 = load i32, ptr %33, align 4, !tbaa !36
  %35 = sub nsw i32 22, %34
  %36 = icmp slt i32 %34, 22
  br i1 %36, label %37, label %sbr_hf_apply_noise.exit.sink.split

37:                                               ; preds = %31
  %38 = icmp sgt i32 %34, -8
  br i1 %38, label %39, label %.thread

39:                                               ; preds = %37
  %40 = sub nsw i32 21, %34
  %41 = shl nuw nsw i32 1, %40
  %42 = load i32, ptr %32, align 4, !tbaa !38
  %43 = sext i32 %42 to i64
  %44 = zext nneg i32 %13 to i64
  %45 = getelementptr inbounds nuw [0 x [2 x i32]], ptr @ff_sbr_noise_table_fixed, i64 0, i64 %44
  %46 = load i32, ptr %45, align 8, !tbaa !19
  %47 = sext i32 %46 to i64
  %48 = mul nsw i64 %47, %43
  %49 = add nsw i64 %48, 1073741824
  %50 = lshr i64 %49, 31
  %51 = trunc i64 %50 to i32
  %52 = add nsw i32 %41, %51
  %53 = ashr i32 %52, %35
  %54 = add i32 %53, %9
  %55 = getelementptr inbounds nuw i8, ptr %45, i64 4
  %56 = load i32, ptr %55, align 4, !tbaa !19
  %57 = sext i32 %56 to i64
  %58 = mul nsw i64 %57, %43
  %59 = add nsw i64 %58, 1073741824
  %60 = lshr i64 %59, 31
  %61 = trunc i64 %60 to i32
  %62 = add nsw i32 %41, %61
  %63 = ashr i32 %62, %35
  %64 = add i32 %63, %11
  br label %.thread

.thread:                                          ; preds = %37, %39, %21, %23
  %.276.i = phi i32 [ %11, %21 ], [ %30, %23 ], [ %11, %37 ], [ %64, %39 ]
  %.271.i = phi i32 [ %9, %21 ], [ %28, %23 ], [ %9, %37 ], [ %54, %39 ]
  store i32 %.271.i, ptr %8, align 4, !tbaa !19
  store i32 %.276.i, ptr %10, align 4, !tbaa !19
  %indvars.iv.next = add nuw nsw i64 %indvars.iv, 1
  %exitcond.not = icmp eq i64 %indvars.iv.next, %wide.trip.count
  br i1 %exitcond.not, label %sbr_hf_apply_noise.exit, label %.lr.ph, !llvm.loop !40

sbr_hf_apply_noise.exit.sink.split:               ; preds = %31, %16
  %.lcssa19.sink = phi i32 [ %19, %16 ], [ %35, %31 ]
  tail call void (ptr, i32, ptr, ...) @av_log(ptr noundef null, i32 noundef 16, ptr noundef nonnull @.str, i32 noundef %.lcssa19.sink) #6
  br label %sbr_hf_apply_noise.exit

sbr_hf_apply_noise.exit:                          ; preds = %.thread, %sbr_hf_apply_noise.exit.sink.split, %6
  ret void
}